; Function Attrs: inlinehint mustprogress nounwind uwtable
define internal fastcc void @_ZN12_GLOBAL__N_18StateSet11WorkingDataD2Ev(ptr %.0.val, ptr %.24.val) unnamed_addr #3 align 2 personality ptr @__gxx_personality_v0 {
  %.not.i.i.i = icmp eq ptr %.24.val, null
  br i1 %.not.i.i.i, label %_ZNSt6vectorIN12_GLOBAL__N_18StateSet5StateESaIS2_EED2Ev.exit, label %1

1:                                                ; preds = %0
  tail call void @_ZdlPv(ptr noundef nonnull %.24.val) #26
  br label %_ZNSt6vectorIN12_GLOBAL__N_18StateSet5StateESaIS2_EED2Ev.exit

_ZNSt6vectorIN12_GLOBAL__N_18StateSet5StateESaIS2_EED2Ev.exit: ; preds = %0, %1
  %.not.i.i.i4 = icmp eq ptr %.0.val, null
  br i1 %.not.i.i.i4, label %_ZNSt6vectorIN12_GLOBAL__N_18StateSet5StateESaIS2_EED2Ev.exit5, label %2

2:                                                ; preds = %_ZNSt6vectorIN12_GLOBAL__N_18StateSet5StateESaIS2_EED2Ev.exit
  tail call void @_ZdlPv(ptr noundef nonnull %.0.val) #26
  br label %_ZNSt6vectorIN12_GLOBAL__N_18StateSet5StateESaIS2_EED2Ev.exit5

_ZNSt6vectorIN12_GLOBAL__N_18StateSet5StateESaIS2_EED2Ev.exit5: ; preds = %_ZNSt6vectorIN12_GLOBAL__N_18StateSet5StateESaIS2_EED2Ev.exit, %2
  ret void
}